target datalayout = "e-m:e-p270:32:32-p271:32:32-p272:64:64-i64:64-i128:128-f80:128-n8:16:32:64-S128"
target triple = "x86_64-pc-linux-gnu"

%struct.expert_field = type { i32, i32 }

@hf_gsm_sms_status_report = internal global i32 0, align 4
@ei_gsm_sms_unexpected_data_length = internal global %struct.expert_field zeroinitializer, align 4
@ett_st = internal global i32 0, align 4

; Function Attrs: null_pointer_is_valid sspstrong uwtable
define internal void @dis_iei_scp(ptr noundef %0, ptr noundef %1, ptr noundef %2, i32 noundef %3, i8 noundef zeroext %4, ptr noundef %5) #0 {
  %7 = alloca ptr, align 8
  %8 = alloca ptr, align 8
  %9 = alloca ptr, align 8
  %10 = alloca i32, align 4
  %11 = alloca i8, align 1
  %12 = alloca ptr, align 8
  store ptr %0, ptr %7, align 8
  store ptr %1, ptr %8, align 8
  store ptr %2, ptr %9, align 8
  store i32 %3, ptr %10, align 4
  store i8 %4, ptr %11, align 1
  store ptr %5, ptr %12, align 8
  %13 = load i8, ptr %11, align 1
  %14 = zext i8 %13 to i32
  %15 = icmp ne i32 %14, 1
  br i1 %15, label %16, label %24

16:                                               ; preds = %6
  %17 = load ptr, ptr %9, align 8
  %18 = load ptr, ptr %8, align 8
  %19 = load ptr, ptr %7, align 8
  %20 = load i32, ptr %10, align 4
  %21 = load i8, ptr %11, align 1
  %22 = zext i8 %21 to i32
  %23 = call ptr @proto_tree_add_expert(ptr noundef %17, ptr noundef %18, ptr noundef @ei_gsm_sms_unexpected_data_length, ptr noundef %19, i32 noundef %20, i32 noundef %22)
  br label %31

24:                                               ; preds = %6
  %25 = load ptr, ptr %9, align 8
  %26 = load ptr, ptr %7, align 8
  %27 = load i32, ptr %10, align 4
  %28 = load i32, ptr @hf_gsm_sms_status_report, align 4
  %29 = load i32, ptr @ett_st, align 4
  %30 = call ptr @proto_tree_add_bitmask(ptr noundef %25, ptr noundef %26, i32 noundef %27, i32 noundef %28, i32 noundef %29, ptr noundef @dis_iei_scp.status_flags, i32 noundef 0)
  br label %31

31:                                               ; preds = %24, %16
  ret void
}